; Function Attrs: mustprogress uwtable
define dso_local void @_ZN17cmScriptGenerator25GenerateScriptActionsOnceERSo23cmScriptGeneratorIndent(ptr noundef nonnull align 8 dereferenceable(105) %0, ptr noundef nonnull align 8 dereferenceable(8) %1, i32 %2) local_unnamed_addr #5 align 2 personality ptr @__gxx_personality_v0 {
  %4 = alloca %"class.std::__cxx11::basic_string", align 8
  %5 = getelementptr inbounds i8, ptr %0, i64 40
  %6 = load ptr, ptr %5, align 8
  %7 = getelementptr inbounds i8, ptr %0, i64 48
  %8 = load ptr, ptr %7, align 8
  %9 = icmp eq ptr %6, %8
  br i1 %9, label %10, label %14

10:                                               ; preds = %3
  %11 = load ptr, ptr %0, align 8
  %12 = getelementptr inbounds i8, ptr %11, i64 32
  %13 = load ptr, ptr %12, align 8
  tail call void %13(ptr noundef nonnull align 8 dereferenceable(105) %0, ptr noundef nonnull align 8 dereferenceable(8) %1, i32 %2)
  br label %33

14:                                               ; preds = %3
  call void @_ZN17cmScriptGenerator16CreateConfigTestERKSt6vectorINSt7__cxx1112basic_stringIcSt11char_traitsIcESaIcEEESaIS6_EE(ptr dead_on_unwind nonnull writable sret(%"class.std::__cxx11::basic_string") align 8 %4, ptr noundef nonnull align 8 dereferenceable(105) %0, ptr noundef nonnull align 8 dereferenceable(24) %5)
  %15 = icmp sgt i32 %2, 0
  br i1 %15, label %.lr.ph.i.i, label %_ZlsRSo23cmScriptGeneratorIndent.exit

.lr.ph.i.i:                                       ; preds = %14, %.noexc
  %.03.i.i = phi i32 [ %17, %.noexc ], [ 0, %14 ]
  %16 = invoke noundef nonnull align 8 dereferenceable(8) ptr @_ZStlsISt11char_traitsIcEERSt13basic_ostreamIcT_ES5_PKc(ptr noundef nonnull align 8 dereferenceable(8) %1, ptr noundef nonnull @.str.11)
          to label %.noexc unwind label %.loopexit.split-lp.loopexit

.noexc:                                           ; preds = %.lr.ph.i.i
  %17 = add nuw nsw i32 %.03.i.i, 1
  %exitcond.not.i = icmp eq i32 %17, %2
  br i1 %exitcond.not.i, label %_ZlsRSo23cmScriptGeneratorIndent.exit, label %.lr.ph.i.i, !llvm.loop !38

_ZlsRSo23cmScriptGeneratorIndent.exit:            ; preds = %.noexc, %14
  %18 = invoke noundef nonnull align 8 dereferenceable(8) ptr @_ZStlsISt11char_traitsIcEERSt13basic_ostreamIcT_ES5_PKc(ptr noundef nonnull align 8 dereferenceable(8) %1, ptr noundef nonnull @.str.4)
          to label %19 unwind label %.loopexit.split-lp.loopexit.split-lp

19:                                               ; preds = %_ZlsRSo23cmScriptGeneratorIndent.exit
  %20 = invoke noundef nonnull align 8 dereferenceable(8) ptr @_ZStlsIcSt11char_traitsIcESaIcEERSt13basic_ostreamIT_T0_ES7_RKNSt7__cxx1112basic_stringIS4_S5_T1_EE(ptr noundef nonnull align 8 dereferenceable(8) %18, ptr noundef nonnull align 8 dereferenceable(32) %4)
          to label %21 unwind label %.loopexit.split-lp.loopexit.split-lp

21:                                               ; preds = %19
  %22 = invoke noundef nonnull align 8 dereferenceable(8) ptr @_ZStlsISt11char_traitsIcEERSt13basic_ostreamIcT_ES5_PKc(ptr noundef nonnull align 8 dereferenceable(8) %20, ptr noundef nonnull @.str.5)
          to label %23 unwind label %.loopexit.split-lp.loopexit.split-lp

23:                                               ; preds = %21
  %24 = add nsw i32 %2, 2
  %25 = load ptr, ptr %0, align 8
  %26 = getelementptr inbounds i8, ptr %25, i64 32
  %27 = load ptr, ptr %26, align 8
  invoke void %27(ptr noundef nonnull align 8 dereferenceable(105) %0, ptr noundef nonnull align 8 dereferenceable(8) %1, i32 %24)
          to label %28 unwind label %.loopexit.split-lp.loopexit.split-lp

28:                                               ; preds = %23
  br i1 %15, label %.lr.ph.i.i9, label %_ZlsRSo23cmScriptGeneratorIndent.exit13

.lr.ph.i.i9:                                      ; preds = %28, %.noexc12
  %.03.i.i10 = phi i32 [ %30, %.noexc12 ], [ 0, %28 ]
  %29 = invoke noundef nonnull align 8 dereferenceable(8) ptr @_ZStlsISt11char_traitsIcEERSt13basic_ostreamIcT_ES5_PKc(ptr noundef nonnull align 8 dereferenceable(8) %1, ptr noundef nonnull @.str.11)
          to label %.noexc12 unwind label %.loopexit

.noexc12:                                         ; preds = %.lr.ph.i.i9
  %30 = add nuw nsw i32 %.03.i.i10, 1
  %exitcond.not.i11 = icmp eq i32 %30, %2
  br i1 %exitcond.not.i11, label %_ZlsRSo23cmScriptGeneratorIndent.exit13, label %.lr.ph.i.i9, !llvm.loop !38

_ZlsRSo23cmScriptGeneratorIndent.exit13:          ; preds = %.noexc12, %28
  %31 = invoke noundef nonnull align 8 dereferenceable(8) ptr @_ZStlsISt11char_traitsIcEERSt13basic_ostreamIcT_ES5_PKc(ptr noundef nonnull align 8 dereferenceable(8) %1, ptr noundef nonnull @.str.6)
          to label %32 unwind label %.loopexit.split-lp.loopexit.split-lp

32:                                               ; preds = %_ZlsRSo23cmScriptGeneratorIndent.exit13
  call void @_ZNSt7__cxx1112basic_stringIcSt11char_traitsIcESaIcEED1Ev(ptr noundef nonnull align 8 dereferenceable(32) %4) #11
  br label %33

.loopexit:                                        ; preds = %.lr.ph.i.i9
  %lpad.loopexit = landingpad { ptr, i32 }
          cleanup
  br label %.loopexit.split-lp

.loopexit.split-lp.loopexit:                      ; preds = %.lr.ph.i.i
  %lpad.loopexit17 = landingpad { ptr, i32 }
          cleanup
  br label %.loopexit.split-lp

.loopexit.split-lp.loopexit.split-lp:             ; preds = %_ZlsRSo23cmScriptGeneratorIndent.exit13, %23, %21, %19, %_ZlsRSo23cmScriptGeneratorIndent.exit
  %lpad.loopexit.split-lp18 = landingpad { ptr, i32 }
          cleanup
  br label %.loopexit.split-lp

.loopexit.split-lp:                               ; preds = %.loopexit.split-lp.loopexit, %.loopexit.split-lp.loopexit.split-lp, %.loopexit
  %lpad.phi = phi { ptr, i32 } [ %lpad.loopexit, %.loopexit ], [ %lpad.loopexit17, %.loopexit.split-lp.loopexit ], [ %lpad.loopexit.split-lp18, %.loopexit.split-lp.loopexit.split-lp ]
  call void @_ZNSt7__cxx1112basic_stringIcSt11char_traitsIcESaIcEED1Ev(ptr noundef nonnull align 8 dereferenceable(32) %4) #11
  resume { ptr, i32 } %lpad.phi

33:                                               ; preds = %32, %10
  ret void
}